(dp0
S'test'
p1
(dp2
S'digit7attempted'
p3
I0
sS'digit8correct'
p4
I0
sS'digit6attempted'
p5
I0
sS'digit0attempted'
p6
I1
sS'TotalRatio'
p7
F1.0
sS'digit6correct'
p8
I0
sS'fails'
p9
I9
sS'digit8attempted'
p10
I0
sS'digit1correct'
p11
I0
sS'digit9attempted'
p12
I0
sS'digit4correct'
p13
I0
sS'digit2attempted'
p14
I0
sS'prevFails'
p15
I11
sS'digit5correct'
p16
I0
sS'digit1attempted'
p17
I1
sS'logins'
p18
I2
sS'digit3correct'
p19
I0
sS'digit4attempted'
p20
I0
sS'success'
p21
I2
sS'digit9correct'
p22
I0
sS'digit5attempted'
p23
I0
sS'digit7correct'
p24
I0
sS'prevSuccess'
p25
I4
sS'digit0correct'
p26
I2
sS'digit3attempted'
p27
I0
sS'digit2correct'
p28
I0
ssS'Codie'
p29
(dp30
S'digit7attempted'
p31
I0
sS'digit8correct'
p32
I0
sS'digit6attempted'
p33
I0
sS'digit0attempted'
p34
I1
sS'TotalRatio'
p35
F1.0
sS'digit6correct'
p36
I0
sS'fails'
p37
I6
sS'digit8attempted'
p38
I0
sS'digit1correct'
p39
I0
sS'digit9attempted'
p40
I0
sS'digit4correct'
p41
I0
sS'digit2attempted'
p42
I0
sS'prevFails'
p43
I4
sS'digit5correct'
p44
I0
sS'digit1attempted'
p45
I1
sS'logins'
p46
I2
sS'digit3correct'
p47
I0
sS'digit4attempted'
p48
I0
sS'success'
p49
I3
sS'digit9correct'
p50
I0
sS'digit5attempted'
p51
I0
sS'digit7correct'
p52
I0
sS'prevSuccess'
p53
I1
sS'digit0correct'
p54
I2
sS'digit3attempted'
p55
I0
sS'digit2correct'
p56
I0
ssS'testTwo'
p57
(dp58
S'digit7attempted'
p59
I0
sS'digit8correct'
p60
I0
sS'digit6attempted'
p61
I0
sS'digit0attempted'
p62
I2
sS'TotalRatio'
p63
F1.0
sS'digit6correct'
p64
I0
sS'fails'
p65
I5
sS'digit4correct'
p66
I0
sS'digit1correct'
p67
I0
sS'prevSuccess'
p68
I4
sS'digit8attempted'
p69
I0
sS'digit2attempted'
p70
I0
sS'prevFails'
p71
I10
sS'digit5correct'
p72
I0
sS'digit1attempted'
p73
I1
sS'logins'
p74
I2
sS'digit3correct'
p75
I0
sS'digit4attempted'
p76
I0
sS'success'
p77
I1
sS'digit9correct'
p78
I0
sS'digit5attempted'
p79
I0
sS'digit7correct'
p80
I0
sS'digit9attempted'
p81
I0
sS'digit0correct'
p82
I1
sS'digit3attempted'
p83
I0
sS'digit2correct'
p84
I0
ss.